; Function Attrs: mustprogress nounwind uwtable
define internal fastcc void @"_ZZN7mitsuba3xml6detailL9parse_xmlERNS1_9XMLSourceERNS1_15XMLParseContextERN4pugi8xml_nodeENS0_3TagERNS_10PropertiesERNSt3__16vectorINSC_5tupleIJNSC_12basic_stringIcNSC_11char_traitsIcEENSC_9allocatorIcEEEESK_bEEENSI_ISL_EEEERmibbEN3$_1D2Ev"(ptr nocapture noundef nonnull align 8 dereferenceable(32) %0) unnamed_addr #0 align 2 personality ptr @__gxx_personality_v0 {
  %2 = load ptr, ptr %0, align 8
  %.not.i.i.i = icmp eq ptr %2, null
  br i1 %.not.i.i.i, label %_ZN7mitsuba10filesystem4pathD2Ev.exit, label %3

3:                                                ; preds = %1
  %4 = getelementptr inbounds i8, ptr %0, i64 8
  %5 = load ptr, ptr %4, align 8
  %.not6.i.i.i.i.i = icmp eq ptr %5, %2
  br i1 %.not6.i.i.i.i.i, label %_ZNSt3__16vectorINS_12basic_stringIcNS_11char_traitsIcEENS_9allocatorIcEEEENS4_IS6_EEE7__clearB8ne190000Ev.exit.i.i.i, label %.lr.ph.i.i.i.i.i

.lr.ph.i.i.i.i.i:                                 ; preds = %3, %.lr.ph.i.i.i.i.i
  %.07.i.i.i.i.i = phi ptr [ %6, %.lr.ph.i.i.i.i.i ], [ %5, %3 ]
  %6 = getelementptr inbounds i8, ptr %.07.i.i.i.i.i, i64 -24
  tail call void @_ZNSt3__112basic_stringIcNS_11char_traitsIcEENS_9allocatorIcEEED1Ev(ptr noundef nonnull align 8 dereferenceable(24) %6) #28
  %.not.i.i.i.i.i = icmp eq ptr %6, %2
  br i1 %.not.i.i.i.i.i, label %_ZNSt3__16vectorINS_12basic_stringIcNS_11char_traitsIcEENS_9allocatorIcEEEENS4_IS6_EEE7__clearB8ne190000Ev.exit.i.loopexit.i.i, label %.lr.ph.i.i.i.i.i

_ZNSt3__16vectorINS_12basic_stringIcNS_11char_traitsIcEENS_9allocatorIcEEEENS4_IS6_EEE7__clearB8ne190000Ev.exit.i.loopexit.i.i: ; preds = %.lr.ph.i.i.i.i.i
  %.pre.i.i = load ptr, ptr %0, align 8
  br label %_ZNSt3__16vectorINS_12basic_stringIcNS_11char_traitsIcEENS_9allocatorIcEEEENS4_IS6_EEE7__clearB8ne190000Ev.exit.i.i.i

_ZNSt3__16vectorINS_12basic_stringIcNS_11char_traitsIcEENS_9allocatorIcEEEENS4_IS6_EEE7__clearB8ne190000Ev.exit.i.i.i: ; preds = %_ZNSt3__16vectorINS_12basic_stringIcNS_11char_traitsIcEENS_9allocatorIcEEEENS4_IS6_EEE7__clearB8ne190000Ev.exit.i.loopexit.i.i, %3
  %7 = phi ptr [ %.pre.i.i, %_ZNSt3__16vectorINS_12basic_stringIcNS_11char_traitsIcEENS_9allocatorIcEEEENS4_IS6_EEE7__clearB8ne190000Ev.exit.i.loopexit.i.i ], [ %2, %3 ]
  store ptr %2, ptr %4, align 8
  tail call void @_ZdlPv(ptr noundef %7) #31
  br label %_ZN7mitsuba10filesystem4pathD2Ev.exit

_ZN7mitsuba10filesystem4pathD2Ev.exit:            ; preds = %1, %_ZNSt3__16vectorINS_12basic_stringIcNS_11char_traitsIcEENS_9allocatorIcEEEENS4_IS6_EEE7__clearB8ne190000Ev.exit.i.i.i
  ret void
}